target datalayout = "e-m:e-p270:32:32-p271:32:32-p272:64:64-i64:64-i128:128-f80:128-n8:16:32:64-S128"
target triple = "x86_64-pc-linux-gnu"

%class.TypeInt = type { %class.TypeInteger.base, i32, i32 }
%class.TypeInteger.base = type { %class.Type.base, i16 }
%class.Type.base = type <{ ptr, ptr, i32 }>

@_ZN7TypeInt3INTE = external global ptr, align 8
@_ZN7TypeInt4BOOLE = external global ptr, align 8
@_ZN7TypeInt3ONEE = external global ptr, align 8

; Function Attrs: mustprogress nounwind uwtable
define linkonce_odr hidden noundef i32 @_ZNK7TypeInt7get_conEv(ptr noundef nonnull align 8 dereferenceable(32) %0) #1 comdat align 2 {
  %2 = alloca ptr, align 8
  store ptr %0, ptr %2, align 8
  %3 = load ptr, ptr %2, align 8
  %4 = getelementptr inbounds %class.TypeInt, ptr %3, i32 0, i32 1
  %5 = load i32, ptr %4, align 8
  ret i32 %5
}

; Function Attrs: mustprogress nounwind uwtable
define linkonce_odr hidden noundef zeroext i1 @_ZNK7TypeInt6is_conEv(ptr noundef nonnull align 8 dereferenceable(32) %0) #1 comdat align 2 {
  %2 = alloca ptr, align 8
  store ptr %0, ptr %2, align 8
  %3 = load ptr, ptr %2, align 8
  %4 = getelementptr inbounds %class.TypeInt, ptr %3, i32 0, i32 1
  %5 = load i32, ptr %4, align 8
  %6 = getelementptr inbounds %class.TypeInt, ptr %3, i32 0, i32 2
  %7 = load i32, ptr %6, align 4
  %8 = icmp eq i32 %5, %7
  ret i1 %8
}

; Function Attrs: mustprogress nounwind uwtable
define linkonce_odr hidden noundef ptr @_ZNK4Type6is_intEv(ptr noundef nonnull align 8 dereferenceable(20) %0) #1 comdat align 2 {
  %2 = alloca ptr, align 8
  store ptr %0, ptr %2, align 8
  %3 = load ptr, ptr %2, align 8
  ret ptr %3
}

; Function Attrs: mustprogress nounwind uwtable
define hidden noundef ptr @_ZNK7OrINode8add_ringEPK4TypeS2_(ptr noundef nonnull align 8 dereferenceable(52) %0, ptr noundef %1, ptr noundef %2) unnamed_addr #1 align 2 {
  %4 = alloca ptr, align 8
  %5 = alloca ptr, align 8
  %6 = alloca ptr, align 8
  %7 = alloca ptr, align 8
  %8 = alloca ptr, align 8
  %9 = alloca ptr, align 8
  store ptr %0, ptr %5, align 8
  store ptr %1, ptr %6, align 8
  store ptr %2, ptr %7, align 8
  %10 = load ptr, ptr %6, align 8
  %11 = call noundef ptr @_ZNK4Type6is_intEv(ptr noundef nonnull align 8 dereferenceable(20) %10)
  store ptr %11, ptr %8, align 8
  %12 = load ptr, ptr %7, align 8
  %13 = call noundef ptr @_ZNK4Type6is_intEv(ptr noundef nonnull align 8 dereferenceable(20) %12)
  store ptr %13, ptr %9, align 8
  %14 = load ptr, ptr %8, align 8
  %15 = load ptr, ptr @_ZN7TypeInt4BOOLE, align 8
  %16 = icmp eq ptr %14, %15
  br i1 %16, label %17, label %31

17:                                               ; preds = %3
  %18 = load ptr, ptr %9, align 8
  %19 = load ptr, ptr @_ZN7TypeInt3ONEE, align 8
  %20 = icmp eq ptr %18, %19
  br i1 %20, label %21, label %23

21:                                               ; preds = %17
  %22 = load ptr, ptr @_ZN7TypeInt3ONEE, align 8
  store ptr %22, ptr %4, align 8
  br label %58

23:                                               ; preds = %17
  %24 = load ptr, ptr %9, align 8
  %25 = load ptr, ptr @_ZN7TypeInt4BOOLE, align 8
  %26 = icmp eq ptr %24, %25
  br i1 %26, label %27, label %29

27:                                               ; preds = %23
  %28 = load ptr, ptr @_ZN7TypeInt4BOOLE, align 8
  store ptr %28, ptr %4, align 8
  br label %58

29:                                               ; preds = %23
  br label %30

30:                                               ; preds = %29
  br label %43

31:                                               ; preds = %3
  %32 = load ptr, ptr %8, align 8
  %33 = load ptr, ptr @_ZN7TypeInt3ONEE, align 8
  %34 = icmp eq ptr %32, %33
  br i1 %34, label %35, label %42

35:                                               ; preds = %31
  %36 = load ptr, ptr %9, align 8
  %37 = load ptr, ptr @_ZN7TypeInt4BOOLE, align 8
  %38 = icmp eq ptr %36, %37
  br i1 %38, label %39, label %41

39:                                               ; preds = %35
  %40 = load ptr, ptr @_ZN7TypeInt3ONEE, align 8
  store ptr %40, ptr %4, align 8
  br label %58

41:                                               ; preds = %35
  br label %42

42:                                               ; preds = %41, %31
  br label %43

43:                                               ; preds = %42, %30
  %44 = load ptr, ptr %8, align 8
  %45 = call noundef zeroext i1 @_ZNK7TypeInt6is_conEv(ptr noundef nonnull align 8 dereferenceable(32) %44)
  br i1 %45, label %46, label %49

46:                                               ; preds = %43
  %47 = load ptr, ptr %9, align 8
  %48 = call noundef zeroext i1 @_ZNK7TypeInt6is_conEv(ptr noundef nonnull align 8 dereferenceable(32) %47)
  br i1 %48, label %51, label %49

49:                                               ; preds = %46, %43
  %50 = load ptr, ptr @_ZN7TypeInt3INTE, align 8
  store ptr %50, ptr %4, align 8
  br label %58

51:                                               ; preds = %46
  %52 = load ptr, ptr %8, align 8
  %53 = call noundef i32 @_ZNK7TypeInt7get_conEv(ptr noundef nonnull align 8 dereferenceable(32) %52)
  %54 = load ptr, ptr %9, align 8
  %55 = call noundef i32 @_ZNK7TypeInt7get_conEv(ptr noundef nonnull align 8 dereferenceable(32) %54)
  %56 = or i32 %53, %55
  %57 = call noundef ptr @_ZN7TypeInt4makeEi(i32 noundef %56)
  store ptr %57, ptr %4, align 8
  br label %58

58:                                               ; preds = %51, %49, %39, %27, %21
  %59 = load ptr, ptr %4, align 8
  ret ptr %59
}