; Function Attrs: mustprogress nounwind uwtable
define hidden noundef ptr @_ZNK7OrINode8add_ringEPK4TypeS2_(ptr nocapture noundef nonnull readnone align 8 dereferenceable(52) %0, ptr noundef readonly %1, ptr noundef readonly %2) unnamed_addr #0 align 2 {
  %4 = load ptr, ptr @_ZN7TypeInt4BOOLE, align 8
  %5 = icmp eq ptr %4, %1
  %6 = load ptr, ptr @_ZN7TypeInt3ONEE, align 8
  br i1 %5, label %7, label %11

7:                                                ; preds = %3
  %8 = icmp eq ptr %6, %2
  br i1 %8, label %31, label %9

9:                                                ; preds = %7
  %10 = icmp eq ptr %1, %2
  br i1 %10, label %31, label %14

11:                                               ; preds = %3
  %12 = icmp eq ptr %6, %1
  %13 = icmp eq ptr %4, %2
  %or.cond = and i1 %13, %12
  br i1 %or.cond, label %31, label %14

14:                                               ; preds = %11, %9
  %15 = getelementptr inbounds i8, ptr %1, i64 24
  %16 = load i32, ptr %15, align 8
  %17 = getelementptr inbounds i8, ptr %1, i64 28
  %18 = load i32, ptr %17, align 4
  %19 = icmp eq i32 %16, %18
  br i1 %19, label %20, label %26

20:                                               ; preds = %14
  %21 = getelementptr inbounds i8, ptr %2, i64 24
  %22 = load i32, ptr %21, align 8
  %23 = getelementptr inbounds i8, ptr %2, i64 28
  %24 = load i32, ptr %23, align 4
  %25 = icmp eq i32 %22, %24
  br i1 %25, label %28, label %26

26:                                               ; preds = %20, %14
  %27 = load ptr, ptr @_ZN7TypeInt3INTE, align 8
  br label %31

28:                                               ; preds = %20
  %29 = or i32 %22, %16
  %30 = tail call noundef ptr @_ZN7TypeInt4makeEi(i32 noundef %29) #7
  br label %31

31:                                               ; preds = %11, %9, %7, %28, %26
  %.0 = phi ptr [ %30, %28 ], [ %27, %26 ], [ %6, %7 ], [ %4, %9 ], [ %6, %11 ]
  ret ptr %.0
}